TN:
SF:/Users/tuantran/developer/leetcode/solutions/0217-contains-duplicate.cc
FN:7,_ZN8Solution17containsDuplicateERNSt3__16vectorIiNS0_9allocatorIiEEEE
FN:18,_Z17independentMethodRi
FNDA:3,_Z17independentMethodRi
FNDA:1,_ZN8Solution17containsDuplicateERNSt3__16vectorIiNS0_9allocatorIiEEEE
FNF:2
FNH:2
DA:7,1
DA:8,1
DA:9,5
DA:10,5
DA:11,1
DA:13,4
DA:14,4
DA:15,0
DA:16,1
DA:18,3
DA:19,3
DA:20,3
LF:12
LH:11
end_of_record
TN:
SF:/Users/tuantran/developer/leetcode/test/testcases.cc
FN:0,__cxx_global_var_init.5
FN:0,__cxx_global_var_init
FN:0,__cxx_global_var_init.7
FN:7,_ZN35IndependentMethod_ResetsToZero_TestC1Ev
FN:7,_ZN35IndependentMethod_ResetsToZero_TestD2Ev
FN:7,_ZN35IndependentMethod_ResetsToZero_TestC2Ev
FN:7,_ZN35IndependentMethod_ResetsToZero_Test8TestBodyEv
FN:7,_ZN35IndependentMethod_ResetsToZero_TestD0Ev
FN:7,_ZN35IndependentMethod_ResetsToZero_TestD1Ev
FN:17,_ZN36IndependentMethod_ResetsToZero2_TestD2Ev
FN:17,_ZN36IndependentMethod_ResetsToZero2_TestD1Ev
FN:17,_ZN36IndependentMethod_ResetsToZero2_Test8TestBodyEv
FN:17,_ZN36IndependentMethod_ResetsToZero2_TestC1Ev
FN:17,_ZN36IndependentMethod_ResetsToZero2_TestD0Ev
FN:17,_ZN36IndependentMethod_ResetsToZero2_TestC2Ev
FN:29,_ZN9TestSuiteC2Ev
FN:33,_ZN9TestSuiteD0Ev
FN:33,_ZN9TestSuiteD1Ev
FN:33,_ZN9TestSuiteD2Ev
FN:39,_ZN9TestSuite5SetUpEv
FN:44,_ZN9TestSuite8TearDownEv
FN:56,_ZN32TestSuite_containsDuplicate_Test8TestBodyEv
FN:56,_ZN32TestSuite_containsDuplicate_TestD1Ev
FN:56,_ZN32TestSuite_containsDuplicate_TestC1Ev
FN:56,_ZN32TestSuite_containsDuplicate_TestC2Ev
FN:56,_ZN32TestSuite_containsDuplicate_TestD2Ev
FN:56,_ZN32TestSuite_containsDuplicate_TestD0Ev
FNDA:1,_ZN32TestSuite_containsDuplicate_TestD0Ev
FNDA:1,_ZN32TestSuite_containsDuplicate_TestD2Ev
FNDA:1,_ZN36IndependentMethod_ResetsToZero2_TestD0Ev
FNDA:1,_ZN35IndependentMethod_ResetsToZero_TestD1Ev
FNDA:1,_ZN35IndependentMethod_ResetsToZero_TestD0Ev
FNDA:1,_ZN9TestSuite5SetUpEv
FNDA:1,__cxx_global_var_init.7
FNDA:1,_ZN36IndependentMethod_ResetsToZero2_TestC2Ev
FNDA:1,_ZN9TestSuiteD2Ev
FNDA:0,_ZN9TestSuiteD1Ev
FNDA:1,_ZN35IndependentMethod_ResetsToZero_TestC1Ev
FNDA:1,_ZN32TestSuite_containsDuplicate_Test8TestBodyEv
FNDA:1,_ZN36IndependentMethod_ResetsToZero2_TestD2Ev
FNDA:1,_ZN9TestSuiteC2Ev
FNDA:1,_ZN32TestSuite_containsDuplicate_TestD1Ev
FNDA:1,_ZN35IndependentMethod_ResetsToZero_TestD2Ev
FNDA:1,_ZN35IndependentMethod_ResetsToZero_TestC2Ev
FNDA:1,_ZN36IndependentMethod_ResetsToZero2_Test8TestBodyEv
FNDA:1,_ZN32TestSuite_containsDuplicate_TestC1Ev
FNDA:1,_ZN36IndependentMethod_ResetsToZero2_TestD1Ev
FNDA:1,__cxx_global_var_init.5
FNDA:1,_ZN36IndependentMethod_ResetsToZero2_TestC1Ev
FNDA:0,_ZN9TestSuiteD0Ev
FNDA:1,_ZN32TestSuite_containsDuplicate_TestC2Ev
FNDA:1,_ZN35IndependentMethod_ResetsToZero_Test8TestBodyEv
FNDA:1,_ZN9TestSuite8TearDownEv
FNDA:1,__cxx_global_var_init
FNF:27
FNH:25
DA:7,7
DA:8,1
DA:9,1
DA:10,1
DA:12,1
DA:13,1
DA:14,1
DA:15,1
DA:17,7
DA:18,1
DA:19,1
DA:20,1
DA:21,1
DA:29,1
DA:31,1
DA:33,1
DA:35,1
DA:39,1
DA:42,1
DA:44,1
DA:47,1
DA:56,7
DA:57,1
DA:58,1
DA:59,1
LF:25
LH:25
end_of_record
